; Function Attrs: mustprogress uwtable
define void @_ZNK4cvc58internal8TypeNode31getUninterpretedSortConstructorEv(ptr dead_on_unwind noalias writable writeonly sret(%"class.cvc5::internal::TypeNode") align 8 captures(none) initializes((0, 8)) %0, ptr noundef nonnull readonly align 8 captures(none) dereferenceable(8) %1) local_unnamed_addr #4 align 2 {
  tail call void @llvm.experimental.noalias.scope.decl(metadata !256)
  %3 = load ptr, ptr %1, align 8, !tbaa !3, !noalias !256
  %4 = getelementptr inbounds nuw i8, ptr %3, i64 8
  %5 = load i64, ptr %4, align 8, !noalias !256
  %6 = trunc i64 %5 to i32
  %7 = and i32 %6, 1023
  %8 = icmp eq i32 %7, 1023
  %9 = select i1 %8, i32 -1, i32 %7
  %10 = tail call noundef i32 @_ZN4cvc58internal4kind10metaKindOfENS1_6Kind_tE(i32 noundef %9), !noalias !256
  %11 = icmp eq i32 %10, 2
  %12 = getelementptr inbounds nuw i8, ptr %3, i64 24
  %13 = zext i1 %11 to i64
  %14 = getelementptr inbounds nuw [0 x ptr], ptr %12, i64 0, i64 %13
  %15 = load ptr, ptr %14, align 8, !tbaa !32, !noalias !256
  store ptr %15, ptr %0, align 8, !tbaa !3, !alias.scope !256
  %16 = load i64, ptr %15, align 8, !noalias !256
  %17 = lshr i64 %16, 40
  %18 = trunc nuw nsw i64 %17 to i32
  %19 = and i32 %18, 1048575
  %20 = icmp samesign ult i32 %19, 1048574
  br i1 %20, label %21, label %26, !prof !27

21:                                               ; preds = %2
  %22 = add i64 %16, 1099511627776
  %23 = and i64 %22, 1152920405095219200
  %24 = and i64 %16, -1152920405095219201
  %25 = or disjoint i64 %23, %24
  store i64 %25, ptr %15, align 8, !noalias !256
  br label %_ZNK4cvc58internal8TypeNodeixEi.exit

26:                                               ; preds = %2
  %27 = icmp eq i32 %19, 1048574
  br i1 %27, label %28, label %_ZNK4cvc58internal8TypeNodeixEi.exit, !prof !9

28:                                               ; preds = %26
  %29 = or i64 %16, 1152920405095219200
  store i64 %29, ptr %15, align 8, !noalias !256
  tail call void @_ZN4cvc58internal4expr9NodeValue20markRefCountMaxedOutEv(ptr noundef nonnull align 8 dereferenceable(24) %15), !noalias !256
  br label %_ZNK4cvc58internal8TypeNodeixEi.exit

_ZNK4cvc58internal8TypeNodeixEi.exit:             ; preds = %21, %26, %28
  ret void
}